target datalayout = "e-m:e-p270:32:32-p271:32:32-p272:64:64-i64:64-i128:128-f80:128-n8:16:32:64-S128"
target triple = "x86_64-pc-linux-gnu"

%struct.bignum_st = type { ptr, i32, i32, i32, i32 }

; Function Attrs: nounwind uwtable
define hidden i32 @BN_add_word(ptr noundef %0, i64 noundef %1) #0 {
  %3 = alloca i32, align 4
  %4 = alloca ptr, align 8
  %5 = alloca i64, align 8
  %6 = alloca i64, align 8
  %7 = alloca i32, align 4
  %8 = alloca i32, align 4
  store ptr %0, ptr %4, align 8, !tbaa !6
  store i64 %1, ptr %5, align 8, !tbaa !19
  call void @llvm.lifetime.start.p0(i64 8, ptr %6) #4
  call void @llvm.lifetime.start.p0(i64 4, ptr %7) #4
  %9 = load i64, ptr %5, align 8, !tbaa !19
  %10 = and i64 %9, -1
  store i64 %10, ptr %5, align 8, !tbaa !19
  %11 = load i64, ptr %5, align 8, !tbaa !19
  %12 = icmp ne i64 %11, 0
  br i1 %12, label %14, label %13

13:                                               ; preds = %2
  store i32 1, ptr %3, align 4
  store i32 1, ptr %8, align 4
  br label %116

14:                                               ; preds = %2
  %15 = load ptr, ptr %4, align 8, !tbaa !6
  %16 = call i32 @BN_is_zero(ptr noundef %15)
  %17 = icmp ne i32 %16, 0
  br i1 %17, label %18, label %22

18:                                               ; preds = %14
  %19 = load ptr, ptr %4, align 8, !tbaa !6
  %20 = load i64, ptr %5, align 8, !tbaa !19
  %21 = call i32 @BN_set_word(ptr noundef %19, i64 noundef %20)
  store i32 %21, ptr %3, align 4
  store i32 1, ptr %8, align 4
  br label %116

22:                                               ; preds = %14
  %23 = load ptr, ptr %4, align 8, !tbaa !6
  %24 = getelementptr inbounds nuw %struct.bignum_st, ptr %23, i32 0, i32 3
  %25 = load i32, ptr %24, align 8, !tbaa !11
  %26 = icmp ne i32 %25, 0
  br i1 %26, label %27, label %47

27:                                               ; preds = %22
  %28 = load ptr, ptr %4, align 8, !tbaa !6
  %29 = getelementptr inbounds nuw %struct.bignum_st, ptr %28, i32 0, i32 3
  store i32 0, ptr %29, align 8, !tbaa !11
  %30 = load ptr, ptr %4, align 8, !tbaa !6
  %31 = load i64, ptr %5, align 8, !tbaa !19
  %32 = call i32 @BN_sub_word(ptr noundef %30, i64 noundef %31)
  store i32 %32, ptr %7, align 4, !tbaa !15
  %33 = load ptr, ptr %4, align 8, !tbaa !6
  %34 = call i32 @BN_is_zero(ptr noundef %33)
  %35 = icmp ne i32 %34, 0
  br i1 %35, label %45, label %36

36:                                               ; preds = %27
  %37 = load ptr, ptr %4, align 8, !tbaa !6
  %38 = getelementptr inbounds nuw %struct.bignum_st, ptr %37, i32 0, i32 3
  %39 = load i32, ptr %38, align 8, !tbaa !11
  %40 = icmp ne i32 %39, 0
  %41 = xor i1 %40, true
  %42 = zext i1 %41 to i32
  %43 = load ptr, ptr %4, align 8, !tbaa !6
  %44 = getelementptr inbounds nuw %struct.bignum_st, ptr %43, i32 0, i32 3
  store i32 %42, ptr %44, align 8, !tbaa !11
  br label %45

45:                                               ; preds = %36, %27
  %46 = load i32, ptr %7, align 4, !tbaa !15
  store i32 %46, ptr %3, align 4
  store i32 1, ptr %8, align 4
  br label %116

47:                                               ; preds = %22
  store i32 0, ptr %7, align 4, !tbaa !15
  br label %48

48:                                               ; preds = %81, %47
  %49 = load i64, ptr %5, align 8, !tbaa !19
  %50 = icmp ne i64 %49, 0
  br i1 %50, label %51, label %57

51:                                               ; preds = %48
  %52 = load i32, ptr %7, align 4, !tbaa !15
  %53 = load ptr, ptr %4, align 8, !tbaa !6
  %54 = getelementptr inbounds nuw %struct.bignum_st, ptr %53, i32 0, i32 1
  %55 = load i32, ptr %54, align 8, !tbaa !16
  %56 = icmp slt i32 %52, %55
  br label %57

57:                                               ; preds = %51, %48
  %58 = phi i1 [ false, %48 ], [ %56, %51 ]
  br i1 %58, label %59, label %84

59:                                               ; preds = %57
  %60 = load ptr, ptr %4, align 8, !tbaa !6
  %61 = getelementptr inbounds nuw %struct.bignum_st, ptr %60, i32 0, i32 0
  %62 = load ptr, ptr %61, align 8, !tbaa !17
  %63 = load i32, ptr %7, align 4, !tbaa !15
  %64 = sext i32 %63 to i64
  %65 = getelementptr inbounds i64, ptr %62, i64 %64
  %66 = load i64, ptr %65, align 8, !tbaa !19
  %67 = load i64, ptr %5, align 8, !tbaa !19
  %68 = add i64 %66, %67
  %69 = and i64 %68, -1
  store i64 %69, ptr %6, align 8, !tbaa !19
  %70 = load ptr, ptr %4, align 8, !tbaa !6
  %71 = getelementptr inbounds nuw %struct.bignum_st, ptr %70, i32 0, i32 0
  %72 = load ptr, ptr %71, align 8, !tbaa !17
  %73 = load i32, ptr %7, align 4, !tbaa !15
  %74 = sext i32 %73 to i64
  %75 = getelementptr inbounds i64, ptr %72, i64 %74
  store i64 %69, ptr %75, align 8, !tbaa !19
  %76 = load i64, ptr %5, align 8, !tbaa !19
  %77 = load i64, ptr %6, align 8, !tbaa !19
  %78 = icmp ugt i64 %76, %77
  %79 = select i1 %78, i32 1, i32 0
  %80 = sext i32 %79 to i64
  store i64 %80, ptr %5, align 8, !tbaa !19
  br label %81

81:                                               ; preds = %59
  %82 = load i32, ptr %7, align 4, !tbaa !15
  %83 = add nsw i32 %82, 1
  store i32 %83, ptr %7, align 4, !tbaa !15
  br label %48, !llvm.loop !26

84:                                               ; preds = %57
  %85 = load i64, ptr %5, align 8, !tbaa !19
  %86 = icmp ne i64 %85, 0
  br i1 %86, label %87, label %115

87:                                               ; preds = %84
  %88 = load i32, ptr %7, align 4, !tbaa !15
  %89 = load ptr, ptr %4, align 8, !tbaa !6
  %90 = getelementptr inbounds nuw %struct.bignum_st, ptr %89, i32 0, i32 1
  %91 = load i32, ptr %90, align 8, !tbaa !16
  %92 = icmp eq i32 %88, %91
  br i1 %92, label %93, label %115

93:                                               ; preds = %87
  %94 = load ptr, ptr %4, align 8, !tbaa !6
  %95 = load ptr, ptr %4, align 8, !tbaa !6
  %96 = getelementptr inbounds nuw %struct.bignum_st, ptr %95, i32 0, i32 1
  %97 = load i32, ptr %96, align 8, !tbaa !16
  %98 = add nsw i32 %97, 1
  %99 = sext i32 %98 to i64
  %100 = call ptr @bn_wexpand(ptr noundef %94, i64 noundef %99)
  %101 = icmp eq ptr %100, null
  br i1 %101, label %102, label %103

102:                                              ; preds = %93
  store i32 0, ptr %3, align 4
  store i32 1, ptr %8, align 4
  br label %116

103:                                              ; preds = %93
  %104 = load ptr, ptr %4, align 8, !tbaa !6
  %105 = getelementptr inbounds nuw %struct.bignum_st, ptr %104, i32 0, i32 1
  %106 = load i32, ptr %105, align 8, !tbaa !16
  %107 = add nsw i32 %106, 1
  store i32 %107, ptr %105, align 8, !tbaa !16
  %108 = load i64, ptr %5, align 8, !tbaa !19
  %109 = load ptr, ptr %4, align 8, !tbaa !6
  %110 = getelementptr inbounds nuw %struct.bignum_st, ptr %109, i32 0, i32 0
  %111 = load ptr, ptr %110, align 8, !tbaa !17
  %112 = load i32, ptr %7, align 4, !tbaa !15
  %113 = sext i32 %112 to i64
  %114 = getelementptr inbounds i64, ptr %111, i64 %113
  store i64 %108, ptr %114, align 8, !tbaa !19
  br label %115

115:                                              ; preds = %103, %87, %84
  store i32 1, ptr %3, align 4
  store i32 1, ptr %8, align 4
  br label %116

116:                                              ; preds = %115, %102, %45, %18, %13
  call void @llvm.lifetime.end.p0(i64 4, ptr %7) #4
  call void @llvm.lifetime.end.p0(i64 8, ptr %6) #4
  %117 = load i32, ptr %3, align 4
  ret i32 %117
}