; Function Attrs: nounwind uwtable
define hidden i32 @BN_add_word(ptr noundef %0, i64 noundef %1) local_unnamed_addr #0 {
  %.not = icmp eq i64 %1, 0
  br i1 %.not, label %.critedge42, label %3

3:                                                ; preds = %2
  %4 = tail call i32 @BN_is_zero(ptr noundef %0) #4
  %.not37 = icmp eq i32 %4, 0
  br i1 %.not37, label %7, label %5

5:                                                ; preds = %3
  %6 = tail call i32 @BN_set_word(ptr noundef %0, i64 noundef %1) #4
  br label %.critedge42

7:                                                ; preds = %3
  %8 = getelementptr inbounds nuw i8, ptr %0, i64 16
  %9 = load i32, ptr %8, align 8, !tbaa !6
  %.not38 = icmp eq i32 %9, 0
  br i1 %.not38, label %.preheader, label %12

.preheader:                                       ; preds = %7
  %10 = getelementptr inbounds nuw i8, ptr %0, i64 8
  %11 = load i32, ptr %10, align 8, !tbaa !13
  %smax = tail call i32 @llvm.smax.i32(i32 %11, i32 0)
  %wide.trip.count = zext nneg i32 %smax to i64
  br label %18

12:                                               ; preds = %7
  store i32 0, ptr %8, align 8, !tbaa !6
  %13 = tail call i32 @BN_sub_word(ptr noundef nonnull %0, i64 noundef %1)
  %14 = tail call i32 @BN_is_zero(ptr noundef nonnull %0) #4
  %.not40 = icmp eq i32 %14, 0
  br i1 %.not40, label %15, label %.critedge42

15:                                               ; preds = %12
  %16 = load i32, ptr %8, align 8, !tbaa !6
  %.not41 = icmp eq i32 %16, 0
  %17 = zext i1 %.not41 to i32
  store i32 %17, ptr %8, align 8, !tbaa !6
  br label %.critedge42

18:                                               ; preds = %.preheader, %19
  %indvars.iv = phi i64 [ 0, %.preheader ], [ %indvars.iv.next, %19 ]
  %.03446 = phi i64 [ %1, %.preheader ], [ 1, %19 ]
  %exitcond.not = icmp eq i64 %indvars.iv, %wide.trip.count
  br i1 %exitcond.not, label %.critedge, label %19

19:                                               ; preds = %18
  %20 = load ptr, ptr %0, align 8, !tbaa !14
  %21 = getelementptr inbounds nuw i64, ptr %20, i64 %indvars.iv
  %22 = load i64, ptr %21, align 8, !tbaa !15
  %23 = add i64 %22, %.03446
  store i64 %23, ptr %21, align 8, !tbaa !15
  %24 = icmp ugt i64 %.03446, %23
  %indvars.iv.next = add nuw nsw i64 %indvars.iv, 1
  br i1 %24, label %18, label %.critedge42, !llvm.loop !22

.critedge:                                        ; preds = %18
  %25 = icmp sgt i32 %11, -1
  br i1 %25, label %26, label %.critedge42

26:                                               ; preds = %.critedge
  %27 = add nuw nsw i32 %11, 1
  %28 = zext nneg i32 %27 to i64
  %29 = tail call ptr @bn_wexpand(ptr noundef nonnull %0, i64 noundef %28) #4
  %30 = icmp eq ptr %29, null
  br i1 %30, label %.critedge42, label %31

31:                                               ; preds = %26
  %32 = load i32, ptr %10, align 8, !tbaa !13
  %33 = add nsw i32 %32, 1
  store i32 %33, ptr %10, align 8, !tbaa !13
  %34 = load ptr, ptr %0, align 8, !tbaa !14
  %35 = zext nneg i32 %11 to i64
  %36 = getelementptr inbounds nuw i64, ptr %34, i64 %35
  store i64 %.03446, ptr %36, align 8, !tbaa !15
  br label %.critedge42

.critedge42:                                      ; preds = %19, %.critedge, %31, %26, %12, %15, %2, %5
  %.033 = phi i32 [ %6, %5 ], [ 1, %2 ], [ %13, %15 ], [ %13, %12 ], [ 0, %26 ], [ 1, %31 ], [ 1, %.critedge ], [ 1, %19 ]
  ret i32 %.033
}